; Function Attrs: nounwind uwtable
define i32 @pmix_bfrops_base_pack_time(ptr noundef %0, ptr noundef %1, ptr noundef readonly captures(none) %2, i32 noundef %3, i16 noundef zeroext %4) local_unnamed_addr #0 {
  %6 = alloca i64, align 8
  call void @llvm.lifetime.start.p0(i64 8, ptr nonnull %6) #8
  %7 = getelementptr inbounds nuw i8, ptr %0, i64 152
  %8 = icmp sgt i32 %3, 0
  br i1 %8, label %.lr.ph, label %.thread

.lr.ph:                                           ; preds = %5
  %9 = getelementptr inbounds nuw i8, ptr %0, i64 128
  %wide.trip.count = zext nneg i32 %3 to i64
  br label %11

10:                                               ; preds = %19
  %indvars.iv.next = add nuw nsw i64 %indvars.iv, 1
  %exitcond.not = icmp eq i64 %indvars.iv.next, %wide.trip.count
  br i1 %exitcond.not, label %.thread, label %11, !llvm.loop !58

11:                                               ; preds = %.lr.ph, %10
  %indvars.iv = phi i64 [ 0, %.lr.ph ], [ %indvars.iv.next, %10 ]
  %12 = getelementptr inbounds nuw i64, ptr %2, i64 %indvars.iv
  %13 = load i64, ptr %12, align 8, !tbaa !56
  store i64 %13, ptr %6, align 8, !tbaa !56
  %14 = load i32, ptr %9, align 8, !tbaa !15
  %.not.i = icmp sgt i32 %14, 15
  br i1 %.not.i, label %pmix_pointer_array_get_item.exit, label %.thread, !prof !18

pmix_pointer_array_get_item.exit:                 ; preds = %11
  %15 = load ptr, ptr %7, align 8, !tbaa !19
  %16 = getelementptr inbounds nuw i8, ptr %15, i64 120
  %17 = load ptr, ptr %16, align 8, !tbaa !20
  %18 = icmp eq ptr %17, null
  br i1 %18, label %.thread, label %19

19:                                               ; preds = %pmix_pointer_array_get_item.exit
  %20 = getelementptr inbounds nuw i8, ptr %17, i64 136
  %21 = load ptr, ptr %20, align 8, !tbaa !21
  %22 = call i32 %21(ptr noundef nonnull %0, ptr noundef %1, ptr noundef nonnull %6, i32 noundef 1, i16 noundef zeroext 15) #8
  %.not = icmp eq i32 %22, 0
  br i1 %.not, label %10, label %.thread

.thread:                                          ; preds = %19, %10, %pmix_pointer_array_get_item.exit, %11, %5
  %.0 = phi i32 [ 0, %5 ], [ -16, %11 ], [ -16, %pmix_pointer_array_get_item.exit ], [ 0, %10 ], [ %22, %19 ]
  call void @llvm.lifetime.end.p0(i64 8, ptr nonnull %6) #8
  ret i32 %.0
}